; Function Attrs: nounwind uwtable
define hidden void @X11_TermResizeSync(ptr noundef readonly captures(none) %0) local_unnamed_addr #0 {
  %2 = getelementptr inbounds nuw i8, ptr %0, i64 392
  %3 = load ptr, ptr %2, align 8
  %4 = getelementptr inbounds nuw i8, ptr %3, i64 336
  %5 = load ptr, ptr %4, align 8
  %6 = load ptr, ptr %5, align 8
  %7 = getelementptr inbounds nuw i8, ptr %5, i64 376
  %8 = load i64, ptr %7, align 8
  %9 = getelementptr inbounds nuw i8, ptr %3, i64 448
  %10 = load i64, ptr %9, align 8
  %11 = load ptr, ptr @X11_XDeleteProperty, align 8
  %12 = getelementptr inbounds nuw i8, ptr %3, i64 8
  %13 = load i64, ptr %12, align 8
  %14 = tail call i32 %11(ptr noundef %6, i64 noundef %13, i64 noundef %8) #7
  %.not = icmp eq i64 %10, 0
  br i1 %.not, label %18, label %15

15:                                               ; preds = %1
  %16 = load ptr, ptr @X11_XSyncDestroyCounter, align 8
  %17 = tail call i32 %16(ptr noundef %6, i64 noundef %10) #7
  br label %18

18:                                               ; preds = %15, %1
  ret void
}